target datalayout = "e-m:e-p270:32:32-p271:32:32-p272:64:64-i64:64-i128:128-f80:128-n8:16:32:64-S128"
target triple = "x86_64-pc-linux-gnu"

%struct.node_t = type { ptr }

@stderr = external global ptr, align 8
@.str = private unnamed_addr constant [30 x i8] c"Assertion failed: %s (%s:%d)\0A\00", align 1
@.str.2 = private unnamed_addr constant [110 x i8] c"generated/home/dtcxzyw/WorkSpace/Projects/compilers/llvm-opt-benchmark/bench/libzmq/libzmq/src/radix_tree.cpp\00", align 1
@.str.3 = private unnamed_addr constant [9 x i8] c"new_data\00", align 1

; Function Attrs: mustprogress nounwind uwtable
define void @_ZN6node_t13set_edgecountEj(ptr noundef nonnull align 8 dereferenceable(8) %0, i32 noundef %1) #0 align 2 {
  %3 = alloca ptr, align 8
  %4 = alloca i32, align 4
  store ptr %0, ptr %3, align 8, !tbaa !3
  store i32 %1, ptr %4, align 4, !tbaa !12
  %5 = load ptr, ptr %3, align 8
  %6 = getelementptr inbounds nuw %struct.node_t, ptr %5, i32 0, i32 0
  %7 = load ptr, ptr %6, align 8, !tbaa !10
  %8 = getelementptr inbounds nuw i8, ptr %7, i64 8
  call void @llvm.memcpy.p0.p0.i64(ptr align 1 %8, ptr align 4 %4, i64 4, i1 false)
  ret void
}

; Function Attrs: mustprogress nounwind uwtable
define void @_ZN6node_t17set_prefix_lengthEj(ptr noundef nonnull align 8 dereferenceable(8) %0, i32 noundef %1) #0 align 2 {
  %3 = alloca ptr, align 8
  %4 = alloca i32, align 4
  store ptr %0, ptr %3, align 8, !tbaa !3
  store i32 %1, ptr %4, align 4, !tbaa !12
  %5 = load ptr, ptr %3, align 8
  %6 = getelementptr inbounds nuw %struct.node_t, ptr %5, i32 0, i32 0
  %7 = load ptr, ptr %6, align 8, !tbaa !10
  %8 = getelementptr inbounds nuw i8, ptr %7, i64 4
  call void @llvm.memcpy.p0.p0.i64(ptr align 1 %8, ptr align 4 %4, i64 4, i1 false)
  ret void
}

; Function Attrs: mustprogress uwtable
define void @_ZN6node_t6resizeEmm(ptr noundef nonnull align 8 dereferenceable(8) %0, i64 noundef %1, i64 noundef %2) #3 align 2 {
  %4 = alloca ptr, align 8
  %5 = alloca i64, align 8
  %6 = alloca i64, align 8
  %7 = alloca i64, align 8
  %8 = alloca ptr, align 8
  store ptr %0, ptr %4, align 8, !tbaa !3
  store i64 %1, ptr %5, align 8, !tbaa !14
  store i64 %2, ptr %6, align 8, !tbaa !14
  %9 = load ptr, ptr %4, align 8
  call void @llvm.lifetime.start.p0(i64 8, ptr %7) #17
  %10 = load i64, ptr %5, align 8, !tbaa !14
  %11 = add i64 12, %10
  %12 = load i64, ptr %6, align 8, !tbaa !14
  %13 = mul i64 %12, 9
  %14 = add i64 %11, %13
  store i64 %14, ptr %7, align 8, !tbaa !14
  call void @llvm.lifetime.start.p0(i64 8, ptr %8) #17
  %15 = getelementptr inbounds nuw %struct.node_t, ptr %9, i32 0, i32 0
  %16 = load ptr, ptr %15, align 8, !tbaa !10
  %17 = load i64, ptr %7, align 8, !tbaa !14
  %18 = call ptr @realloc(ptr noundef %16, i64 noundef %17) #18
  store ptr %18, ptr %8, align 8, !tbaa !8
  br label %19

19:                                               ; preds = %3
  %20 = load ptr, ptr %8, align 8, !tbaa !8
  %21 = icmp ne ptr %20, null
  %22 = xor i1 %21, true
  %23 = zext i1 %22 to i64
  %24 = call i64 @llvm.expect.i64(i64 %23, i64 0)
  %25 = icmp ne i64 %24, 0
  br i1 %25, label %26, label %31

26:                                               ; preds = %19
  %27 = load ptr, ptr @stderr, align 8, !tbaa !16
  %28 = call i32 (ptr, ptr, ...) @fprintf(ptr noundef %27, ptr noundef @.str, ptr noundef @.str.3, ptr noundef @.str.2, i32 noundef 135) #17
  %29 = load ptr, ptr @stderr, align 8, !tbaa !16
  %30 = call i32 @fflush(ptr noundef %29)
  call void @_ZN3zmq9zmq_abortEPKc(ptr noundef @.str.3)
  br label %31

31:                                               ; preds = %26, %19
  br label %32

32:                                               ; preds = %31
  br label %33

33:                                               ; preds = %32
  %34 = load ptr, ptr %8, align 8, !tbaa !8
  %35 = getelementptr inbounds nuw %struct.node_t, ptr %9, i32 0, i32 0
  store ptr %34, ptr %35, align 8, !tbaa !10
  %36 = load i64, ptr %5, align 8, !tbaa !14
  %37 = trunc i64 %36 to i32
  call void @_ZN6node_t17set_prefix_lengthEj(ptr noundef nonnull align 8 dereferenceable(8) %9, i32 noundef %37)
  %38 = load i64, ptr %6, align 8, !tbaa !14
  %39 = trunc i64 %38 to i32
  call void @_ZN6node_t13set_edgecountEj(ptr noundef nonnull align 8 dereferenceable(8) %9, i32 noundef %39)
  call void @llvm.lifetime.end.p0(i64 8, ptr %8) #17
  call void @llvm.lifetime.end.p0(i64 8, ptr %7) #17
  ret void
}