; Function Attrs: mustprogress uwtable
define void @_ZN6node_t6resizeEmm(ptr noundef nonnull align 8 captures(none) dereferenceable(8) %0, i64 noundef %1, i64 noundef %2) local_unnamed_addr #7 align 2 {
  %4 = add i64 %1, 12
  %5 = mul i64 %2, 9
  %6 = add i64 %4, %5
  %7 = load ptr, ptr %0, align 8, !tbaa !3
  %8 = tail call ptr @realloc(ptr noundef %7, i64 noundef %6) #24
  %.not = icmp eq ptr %8, null
  br i1 %.not, label %9, label %14, !prof !13

9:                                                ; preds = %3
  %10 = load ptr, ptr @stderr, align 8, !tbaa !10
  %11 = tail call i32 (ptr, ptr, ...) @fprintf(ptr noundef %10, ptr noundef nonnull @.str, ptr noundef nonnull @.str.3, ptr noundef nonnull @.str.2, i32 noundef 135) #23
  %12 = load ptr, ptr @stderr, align 8, !tbaa !10
  %13 = tail call i32 @fflush(ptr noundef %12)
  tail call void @_ZN3zmq9zmq_abortEPKc(ptr noundef nonnull @.str.3)
  br label %14

14:                                               ; preds = %9, %3
  store ptr %8, ptr %0, align 8, !tbaa !3
  %15 = trunc i64 %1 to i32
  %16 = getelementptr inbounds nuw i8, ptr %8, i64 4
  store i32 %15, ptr %16, align 1
  %17 = trunc i64 %2 to i32
  %18 = getelementptr inbounds nuw i8, ptr %8, i64 8
  store i32 %17, ptr %18, align 1
  ret void
}